; Function Attrs: nounwind sspstrong uwtable
define hidden void @rb_yjit_obj_written(i64 noundef %0, i64 noundef %1, ptr noundef readnone captures(none) %2, i32 noundef %3) local_unnamed_addr #0 {
  %5 = icmp eq i64 %1, 0
  %6 = and i64 %1, 7
  %7 = icmp ne i64 %6, 0
  %8 = or i1 %5, %7
  br i1 %8, label %rb_obj_written.exit, label %9

9:                                                ; preds = %4
  tail call void @rb_gc_writebarrier(i64 noundef %0, i64 noundef %1) #5
  br label %rb_obj_written.exit

rb_obj_written.exit:                              ; preds = %4, %9
  ret void
}